target datalayout = "e-m:e-p270:32:32-p271:32:32-p272:64:64-i64:64-i128:128-f80:128-n8:16:32:64-S128"
target triple = "x86_64-pc-linux-gnu"

%struct._zend_refcounted_h = type { i32, %union.anon.3 }
%union.anon.3 = type { i32 }
%struct._zend_ini_entry = type { ptr, ptr, ptr, ptr, ptr, ptr, ptr, ptr, i32, i8, i8, i8 }
%struct._zend_string = type { %struct._zend_refcounted_h, i64, i64, [1 x i8] }

@.str.1 = private unnamed_addr constant [5 x i8] c"true\00", align 1
@.str.2 = private unnamed_addr constant [4 x i8] c"yes\00", align 1
@.str.3 = private unnamed_addr constant [3 x i8] c"on\00", align 1
@zend_write = external global ptr, align 8
@.str.5 = private unnamed_addr constant [3 x i8] c"On\00", align 1
@.str.6 = private unnamed_addr constant [4 x i8] c"Off\00", align 1

; Function Attrs: nounwind uwtable
define zeroext i1 @zend_ini_parse_bool(ptr noundef %0) #0 {
  %2 = alloca i1, align 1
  %3 = alloca ptr, align 8
  store ptr %0, ptr %3, align 8
  %4 = load ptr, ptr %3, align 8
  %5 = getelementptr inbounds %struct._zend_string, ptr %4, i32 0, i32 2
  %6 = load i64, ptr %5, align 8
  %7 = icmp eq i64 %6, 4
  br i1 %7, label %8, label %17

8:                                                ; preds = %1
  %9 = load ptr, ptr %3, align 8
  %10 = getelementptr inbounds %struct._zend_string, ptr %9, i32 0, i32 3
  %11 = getelementptr inbounds [1 x i8], ptr %10, i64 0, i64 0
  %12 = load ptr, ptr %3, align 8
  %13 = getelementptr inbounds %struct._zend_string, ptr %12, i32 0, i32 2
  %14 = load i64, ptr %13, align 8
  %15 = call i32 @zend_binary_strcasecmp(ptr noundef %11, i64 noundef %14, ptr noundef @.str.1, i64 noundef 4)
  %16 = icmp ne i32 %15, 0
  br i1 %16, label %17, label %45

17:                                               ; preds = %8, %1
  %18 = load ptr, ptr %3, align 8
  %19 = getelementptr inbounds %struct._zend_string, ptr %18, i32 0, i32 2
  %20 = load i64, ptr %19, align 8
  %21 = icmp eq i64 %20, 3
  br i1 %21, label %22, label %31

22:                                               ; preds = %17
  %23 = load ptr, ptr %3, align 8
  %24 = getelementptr inbounds %struct._zend_string, ptr %23, i32 0, i32 3
  %25 = getelementptr inbounds [1 x i8], ptr %24, i64 0, i64 0
  %26 = load ptr, ptr %3, align 8
  %27 = getelementptr inbounds %struct._zend_string, ptr %26, i32 0, i32 2
  %28 = load i64, ptr %27, align 8
  %29 = call i32 @zend_binary_strcasecmp(ptr noundef %25, i64 noundef %28, ptr noundef @.str.2, i64 noundef 3)
  %30 = icmp ne i32 %29, 0
  br i1 %30, label %31, label %45

31:                                               ; preds = %22, %17
  %32 = load ptr, ptr %3, align 8
  %33 = getelementptr inbounds %struct._zend_string, ptr %32, i32 0, i32 2
  %34 = load i64, ptr %33, align 8
  %35 = icmp eq i64 %34, 2
  br i1 %35, label %36, label %46

36:                                               ; preds = %31
  %37 = load ptr, ptr %3, align 8
  %38 = getelementptr inbounds %struct._zend_string, ptr %37, i32 0, i32 3
  %39 = getelementptr inbounds [1 x i8], ptr %38, i64 0, i64 0
  %40 = load ptr, ptr %3, align 8
  %41 = getelementptr inbounds %struct._zend_string, ptr %40, i32 0, i32 2
  %42 = load i64, ptr %41, align 8
  %43 = call i32 @zend_binary_strcasecmp(ptr noundef %39, i64 noundef %42, ptr noundef @.str.3, i64 noundef 2)
  %44 = icmp ne i32 %43, 0
  br i1 %44, label %46, label %45

45:                                               ; preds = %36, %22, %8
  store i1 true, ptr %2, align 1
  br label %52

46:                                               ; preds = %36, %31
  %47 = load ptr, ptr %3, align 8
  %48 = getelementptr inbounds %struct._zend_string, ptr %47, i32 0, i32 3
  %49 = getelementptr inbounds [1 x i8], ptr %48, i64 0, i64 0
  %50 = call i32 @atoi(ptr noundef %49) #16
  %51 = icmp ne i32 %50, 0
  store i1 %51, ptr %2, align 1
  br label %52

52:                                               ; preds = %46, %45
  %53 = load i1, ptr %2, align 1
  ret i1 %53
}

; Function Attrs: nounwind uwtable
define void @zend_ini_boolean_displayer_cb(ptr noundef %0, i32 noundef %1) #0 {
  %3 = alloca ptr, align 8
  %4 = alloca i32, align 4
  %5 = alloca i32, align 4
  %6 = alloca ptr, align 8
  store ptr %0, ptr %3, align 8
  store i32 %1, ptr %4, align 4
  %7 = load i32, ptr %4, align 4
  %8 = icmp eq i32 %7, 1
  br i1 %8, label %9, label %27

9:                                                ; preds = %2
  %10 = load ptr, ptr %3, align 8
  %11 = getelementptr inbounds %struct._zend_ini_entry, ptr %10, i32 0, i32 11
  %12 = load i8, ptr %11, align 2
  %13 = zext i8 %12 to i32
  %14 = icmp ne i32 %13, 0
  br i1 %14, label %15, label %27

15:                                               ; preds = %9
  %16 = load ptr, ptr %3, align 8
  %17 = getelementptr inbounds %struct._zend_ini_entry, ptr %16, i32 0, i32 6
  %18 = load ptr, ptr %17, align 8
  %19 = icmp ne ptr %18, null
  br i1 %19, label %20, label %24

20:                                               ; preds = %15
  %21 = load ptr, ptr %3, align 8
  %22 = getelementptr inbounds %struct._zend_ini_entry, ptr %21, i32 0, i32 6
  %23 = load ptr, ptr %22, align 8
  br label %25

24:                                               ; preds = %15
  br label %25

25:                                               ; preds = %24, %20
  %26 = phi ptr [ %23, %20 ], [ null, %24 ]
  store ptr %26, ptr %6, align 8
  br label %38

27:                                               ; preds = %9, %2
  %28 = load ptr, ptr %3, align 8
  %29 = getelementptr inbounds %struct._zend_ini_entry, ptr %28, i32 0, i32 5
  %30 = load ptr, ptr %29, align 8
  %31 = icmp ne ptr %30, null
  br i1 %31, label %32, label %36

32:                                               ; preds = %27
  %33 = load ptr, ptr %3, align 8
  %34 = getelementptr inbounds %struct._zend_ini_entry, ptr %33, i32 0, i32 5
  %35 = load ptr, ptr %34, align 8
  store ptr %35, ptr %6, align 8
  br label %37

36:                                               ; preds = %27
  store ptr null, ptr %6, align 8
  br label %37

37:                                               ; preds = %36, %32
  br label %38

38:                                               ; preds = %37, %25
  %39 = load ptr, ptr %6, align 8
  %40 = icmp ne ptr %39, null
  br i1 %40, label %41, label %45

41:                                               ; preds = %38
  %42 = load ptr, ptr %6, align 8
  %43 = call zeroext i1 @zend_ini_parse_bool(ptr noundef %42)
  %44 = zext i1 %43 to i32
  store i32 %44, ptr %5, align 4
  br label %46

45:                                               ; preds = %38
  store i32 0, ptr %5, align 4
  br label %46

46:                                               ; preds = %45, %41
  %47 = load i32, ptr %5, align 4
  %48 = icmp ne i32 %47, 0
  br i1 %48, label %49, label %52

49:                                               ; preds = %46
  %50 = load ptr, ptr @zend_write, align 8
  %51 = call i64 %50(ptr noundef @.str.5, i64 noundef 2)
  br label %55

52:                                               ; preds = %46
  %53 = load ptr, ptr @zend_write, align 8
  %54 = call i64 %53(ptr noundef @.str.6, i64 noundef 3)
  br label %55

55:                                               ; preds = %52, %49
  ret void
}