; Function Attrs: nounwind uwtable
define void @zend_ini_boolean_displayer_cb(ptr nocapture noundef readonly %0, i32 noundef %1) local_unnamed_addr #0 {
  %3 = icmp eq i32 %1, 1
  br i1 %3, label %4, label %7

4:                                                ; preds = %2
  %5 = getelementptr inbounds i8, ptr %0, i64 70
  %6 = load i8, ptr %5, align 2
  %.not = icmp eq i8 %6, 0
  br i1 %.not, label %7, label %8

7:                                                ; preds = %4, %2
  br label %8

8:                                                ; preds = %4, %7
  %.sink = phi i64 [ 40, %7 ], [ 48, %4 ]
  %9 = getelementptr inbounds i8, ptr %0, i64 %.sink
  %.0 = load ptr, ptr %9, align 8
  %.not13 = icmp eq ptr %.0, null
  br i1 %.not13, label %.critedge, label %10

10:                                               ; preds = %8
  %11 = getelementptr inbounds i8, ptr %.0, i64 16
  %12 = load i64, ptr %11, align 8
  %13 = icmp eq i64 %12, 4
  br i1 %13, label %14, label %17

14:                                               ; preds = %10
  %15 = getelementptr inbounds i8, ptr %.0, i64 24
  %16 = tail call i32 @zend_binary_strcasecmp(ptr noundef nonnull %15, i64 noundef 4, ptr noundef nonnull @.str.1, i64 noundef 4) #20
  %.not.i = icmp eq i32 %16, 0
  br i1 %.not.i, label %zend_ini_parse_bool.exit.thread, label %thread-pre-split.i

thread-pre-split.i:                               ; preds = %14
  %.pr.i = load i64, ptr %11, align 8
  br label %17

17:                                               ; preds = %thread-pre-split.i, %10
  %18 = phi i64 [ %.pr.i, %thread-pre-split.i ], [ %12, %10 ]
  %19 = icmp eq i64 %18, 3
  br i1 %19, label %20, label %23

20:                                               ; preds = %17
  %21 = getelementptr inbounds i8, ptr %.0, i64 24
  %22 = tail call i32 @zend_binary_strcasecmp(ptr noundef nonnull %21, i64 noundef 3, ptr noundef nonnull @.str.2, i64 noundef 3) #20
  %.not14.i = icmp eq i32 %22, 0
  br i1 %.not14.i, label %zend_ini_parse_bool.exit.thread, label %._crit_edge.i

._crit_edge.i:                                    ; preds = %20
  %.pre.i = load i64, ptr %11, align 8
  br label %23

23:                                               ; preds = %._crit_edge.i, %17
  %24 = phi i64 [ %.pre.i, %._crit_edge.i ], [ %18, %17 ]
  %25 = icmp eq i64 %24, 2
  br i1 %25, label %26, label %zend_ini_parse_bool.exit

26:                                               ; preds = %23
  %27 = getelementptr inbounds i8, ptr %.0, i64 24
  %28 = tail call i32 @zend_binary_strcasecmp(ptr noundef nonnull %27, i64 noundef 2, ptr noundef nonnull @.str.3, i64 noundef 2) #20
  %.not15.i = icmp eq i32 %28, 0
  br i1 %.not15.i, label %zend_ini_parse_bool.exit.thread, label %zend_ini_parse_bool.exit

zend_ini_parse_bool.exit:                         ; preds = %23, %26
  %29 = getelementptr inbounds i8, ptr %.0, i64 24
  %30 = tail call i32 @atoi(ptr nocapture noundef nonnull %29) #22
  %.not16 = icmp eq i32 %30, 0
  br i1 %.not16, label %.critedge, label %zend_ini_parse_bool.exit.thread

zend_ini_parse_bool.exit.thread:                  ; preds = %14, %20, %26, %zend_ini_parse_bool.exit
  %31 = load ptr, ptr @zend_write, align 8
  %32 = tail call i64 %31(ptr noundef nonnull @.str.5, i64 noundef 2) #20
  br label %35

.critedge:                                        ; preds = %8, %zend_ini_parse_bool.exit
  %33 = load ptr, ptr @zend_write, align 8
  %34 = tail call i64 %33(ptr noundef nonnull @.str.6, i64 noundef 3) #20
  br label %35

35:                                               ; preds = %.critedge, %zend_ini_parse_bool.exit.thread
  ret void
}